target datalayout = "e-m:e-p270:32:32-p271:32:32-p272:64:64-i64:64-i128:128-f80:128-n8:16:32:64-S128"
target triple = "x86_64-pc-linux-gnu"

%struct.prov_drbg_st = type { ptr, ptr, ptr, ptr, ptr, ptr, ptr, ptr, ptr, ptr, ptr, ptr, ptr, ptr, i32, i16, i32, i64, i64, i64, i64, i64, i64, i64, i32, i32, i64, i64, i32, i32, i32, i64, i32, ptr, ptr, ptr, ptr, ptr, ptr }
%struct.rand_drbg_hash_st = type { %struct.PROV_DIGEST, ptr, i64, [111 x i8], [111 x i8], [111 x i8] }
%struct.PROV_DIGEST = type { ptr, ptr, ptr }
%struct.ossl_param_st = type { ptr, i32, ptr, i64, i64 }

@.str.1 = private unnamed_addr constant [14 x i8] c"provider-name\00", align 1
@.str.2 = private unnamed_addr constant [7 x i8] c"digest\00", align 1

; Function Attrs: nounwind uwtable
define internal i32 @drbg_fetch_digest_from_prov(ptr noundef %0, ptr noundef %1, ptr noundef %2) #0 {
  %4 = alloca i32, align 4
  %5 = alloca ptr, align 8
  %6 = alloca ptr, align 8
  %7 = alloca ptr, align 8
  %8 = alloca ptr, align 8
  %9 = alloca ptr, align 8
  %10 = alloca ptr, align 8
  %11 = alloca i32, align 4
  %12 = alloca i32, align 4
  store ptr %0, ptr %5, align 8, !tbaa !29
  store ptr %1, ptr %6, align 8, !tbaa !50
  store ptr %2, ptr %7, align 8, !tbaa !55
  call void @llvm.lifetime.start.p0(i64 8, ptr %8) #4
  store ptr null, ptr %8, align 8, !tbaa !57
  call void @llvm.lifetime.start.p0(i64 8, ptr %9) #4
  call void @llvm.lifetime.start.p0(i64 8, ptr %10) #4
  store ptr null, ptr %10, align 8, !tbaa !32
  call void @llvm.lifetime.start.p0(i64 4, ptr %11) #4
  store i32 0, ptr %11, align 4, !tbaa !25
  %13 = load ptr, ptr %7, align 8, !tbaa !55
  %14 = icmp eq ptr %13, null
  br i1 %14, label %15, label %16

15:                                               ; preds = %3
  store i32 0, ptr %4, align 4
  store i32 1, ptr %12, align 4
  br label %64

16:                                               ; preds = %3
  %17 = load ptr, ptr %5, align 8, !tbaa !29
  %18 = call ptr @OSSL_PARAM_locate_const(ptr noundef %17, ptr noundef @.str.1)
  store ptr %18, ptr %9, align 8, !tbaa !29
  %19 = icmp eq ptr %18, null
  br i1 %19, label %20, label %21

20:                                               ; preds = %16
  store i32 0, ptr %4, align 4
  store i32 1, ptr %12, align 4
  br label %64

21:                                               ; preds = %16
  %22 = load ptr, ptr %9, align 8, !tbaa !29
  %23 = getelementptr inbounds nuw %struct.ossl_param_st, ptr %22, i32 0, i32 1
  %24 = load i32, ptr %23, align 8, !tbaa !59
  %25 = icmp ne i32 %24, 4
  br i1 %25, label %26, label %27

26:                                               ; preds = %21
  store i32 0, ptr %4, align 4
  store i32 1, ptr %12, align 4
  br label %64

27:                                               ; preds = %21
  %28 = load ptr, ptr %6, align 8, !tbaa !50
  %29 = load ptr, ptr %9, align 8, !tbaa !29
  %30 = getelementptr inbounds nuw %struct.ossl_param_st, ptr %29, i32 0, i32 2
  %31 = load ptr, ptr %30, align 8, !tbaa !61
  %32 = call ptr @ossl_provider_find(ptr noundef %28, ptr noundef %31, i32 noundef 1)
  store ptr %32, ptr %8, align 8, !tbaa !57
  %33 = icmp eq ptr %32, null
  br i1 %33, label %34, label %35

34:                                               ; preds = %27
  store i32 0, ptr %4, align 4
  store i32 1, ptr %12, align 4
  br label %64

35:                                               ; preds = %27
  %36 = load ptr, ptr %5, align 8, !tbaa !29
  %37 = call ptr @OSSL_PARAM_locate_const(ptr noundef %36, ptr noundef @.str.2)
  store ptr %37, ptr %9, align 8, !tbaa !29
  %38 = load ptr, ptr %9, align 8, !tbaa !29
  %39 = icmp eq ptr %38, null
  br i1 %39, label %40, label %41

40:                                               ; preds = %35
  store i32 1, ptr %11, align 4, !tbaa !25
  br label %61

41:                                               ; preds = %35
  %42 = load ptr, ptr %9, align 8, !tbaa !29
  %43 = getelementptr inbounds nuw %struct.ossl_param_st, ptr %42, i32 0, i32 1
  %44 = load i32, ptr %43, align 8, !tbaa !59
  %45 = icmp ne i32 %44, 4
  br i1 %45, label %46, label %47

46:                                               ; preds = %41
  br label %61

47:                                               ; preds = %41
  %48 = load ptr, ptr %8, align 8, !tbaa !57
  %49 = load ptr, ptr %9, align 8, !tbaa !29
  %50 = getelementptr inbounds nuw %struct.ossl_param_st, ptr %49, i32 0, i32 2
  %51 = load ptr, ptr %50, align 8, !tbaa !61
  %52 = call ptr @evp_digest_fetch_from_prov(ptr noundef %48, ptr noundef %51, ptr noundef null)
  store ptr %52, ptr %10, align 8, !tbaa !32
  %53 = load ptr, ptr %10, align 8, !tbaa !32
  %54 = icmp ne ptr %53, null
  br i1 %54, label %55, label %60

55:                                               ; preds = %47
  %56 = load ptr, ptr %7, align 8, !tbaa !55
  %57 = load ptr, ptr %56, align 8, !tbaa !32
  call void @EVP_MD_free(ptr noundef %57)
  %58 = load ptr, ptr %10, align 8, !tbaa !32
  %59 = load ptr, ptr %7, align 8, !tbaa !55
  store ptr %58, ptr %59, align 8, !tbaa !32
  store i32 1, ptr %11, align 4, !tbaa !25
  br label %60

60:                                               ; preds = %55, %47
  br label %61

61:                                               ; preds = %60, %46, %40
  %62 = load ptr, ptr %8, align 8, !tbaa !57
  call void @ossl_provider_free(ptr noundef %62)
  %63 = load i32, ptr %11, align 4, !tbaa !25
  store i32 %63, ptr %4, align 4
  store i32 1, ptr %12, align 4
  br label %64

64:                                               ; preds = %61, %34, %26, %20, %15
  call void @llvm.lifetime.end.p0(i64 4, ptr %11) #4
  call void @llvm.lifetime.end.p0(i64 8, ptr %10) #4
  call void @llvm.lifetime.end.p0(i64 8, ptr %9) #4
  call void @llvm.lifetime.end.p0(i64 8, ptr %8) #4
  %65 = load i32, ptr %4, align 4
  ret i32 %65
}

; Function Attrs: nounwind uwtable
define internal i32 @drbg_hash_set_ctx_params_locked(ptr noundef %0, ptr noundef %1) #0 {
  %3 = alloca i32, align 4
  %4 = alloca ptr, align 8
  %5 = alloca ptr, align 8
  %6 = alloca ptr, align 8
  %7 = alloca ptr, align 8
  %8 = alloca ptr, align 8
  %9 = alloca ptr, align 8
  %10 = alloca ptr, align 8
  %11 = alloca i32, align 4
  %12 = alloca i32, align 4
  store ptr %0, ptr %4, align 8, !tbaa !3
  store ptr %1, ptr %5, align 8, !tbaa !29
  call void @llvm.lifetime.start.p0(i64 8, ptr %6) #4
  %13 = load ptr, ptr %4, align 8, !tbaa !3
  store ptr %13, ptr %6, align 8, !tbaa !9
  call void @llvm.lifetime.start.p0(i64 8, ptr %7) #4
  %14 = load ptr, ptr %6, align 8, !tbaa !9
  %15 = getelementptr inbounds nuw %struct.prov_drbg_st, ptr %14, i32 0, i32 33
  %16 = load ptr, ptr %15, align 8, !tbaa !11
  store ptr %16, ptr %7, align 8, !tbaa !17
  call void @llvm.lifetime.start.p0(i64 8, ptr %8) #4
  %17 = load ptr, ptr %6, align 8, !tbaa !9
  %18 = getelementptr inbounds nuw %struct.prov_drbg_st, ptr %17, i32 0, i32 1
  %19 = load ptr, ptr %18, align 8, !tbaa !49
  %20 = call ptr @ossl_prov_ctx_get0_libctx(ptr noundef %19)
  store ptr %20, ptr %8, align 8, !tbaa !50
  call void @llvm.lifetime.start.p0(i64 8, ptr %9) #4
  store ptr null, ptr %9, align 8, !tbaa !32
  call void @llvm.lifetime.start.p0(i64 8, ptr %10) #4
  call void @llvm.lifetime.start.p0(i64 4, ptr %11) #4
  %21 = call i32 @ERR_set_mark()
  %22 = load ptr, ptr %5, align 8, !tbaa !29
  %23 = load ptr, ptr %8, align 8, !tbaa !50
  %24 = call i32 @drbg_fetch_digest_from_prov(ptr noundef %22, ptr noundef %23, ptr noundef %9)
  %25 = icmp ne i32 %24, 0
  br i1 %25, label %36, label %26

26:                                               ; preds = %2
  %27 = call i32 @ERR_pop_to_mark()
  %28 = load ptr, ptr %7, align 8, !tbaa !17
  %29 = getelementptr inbounds nuw %struct.rand_drbg_hash_st, ptr %28, i32 0, i32 0
  %30 = load ptr, ptr %5, align 8, !tbaa !29
  %31 = load ptr, ptr %8, align 8, !tbaa !50
  %32 = call i32 @ossl_prov_digest_load_from_params(ptr noundef %29, ptr noundef %30, ptr noundef %31)
  %33 = icmp ne i32 %32, 0
  br i1 %33, label %35, label %34

34:                                               ; preds = %26
  store i32 0, ptr %3, align 4
  store i32 1, ptr %12, align 4
  br label %113

35:                                               ; preds = %26
  br label %45

36:                                               ; preds = %2
  %37 = call i32 @ERR_clear_last_mark()
  %38 = load ptr, ptr %9, align 8, !tbaa !32
  %39 = icmp ne ptr %38, null
  br i1 %39, label %40, label %44

40:                                               ; preds = %36
  %41 = load ptr, ptr %7, align 8, !tbaa !17
  %42 = getelementptr inbounds nuw %struct.rand_drbg_hash_st, ptr %41, i32 0, i32 0
  %43 = load ptr, ptr %9, align 8, !tbaa !32
  call void @ossl_prov_digest_set_md(ptr noundef %42, ptr noundef %43)
  br label %44

44:                                               ; preds = %40, %36
  br label %45

45:                                               ; preds = %44, %35
  %46 = load ptr, ptr %7, align 8, !tbaa !17
  %47 = getelementptr inbounds nuw %struct.rand_drbg_hash_st, ptr %46, i32 0, i32 0
  %48 = call ptr @ossl_prov_digest_md(ptr noundef %47)
  store ptr %48, ptr %10, align 8, !tbaa !32
  %49 = load ptr, ptr %10, align 8, !tbaa !32
  %50 = icmp ne ptr %49, null
  br i1 %50, label %51, label %109

51:                                               ; preds = %45
  %52 = load ptr, ptr %6, align 8, !tbaa !9
  %53 = load ptr, ptr %8, align 8, !tbaa !50
  %54 = load ptr, ptr %10, align 8, !tbaa !32
  %55 = call i32 @ossl_drbg_verify_digest(ptr noundef %52, ptr noundef %53, ptr noundef %54)
  %56 = icmp ne i32 %55, 0
  br i1 %56, label %58, label %57

57:                                               ; preds = %51
  store i32 0, ptr %3, align 4
  store i32 1, ptr %12, align 4
  br label %113

58:                                               ; preds = %51
  %59 = load ptr, ptr %10, align 8, !tbaa !32
  %60 = call i32 @EVP_MD_get_size(ptr noundef %59)
  store i32 %60, ptr %11, align 4, !tbaa !25
  %61 = load i32, ptr %11, align 4, !tbaa !25
  %62 = icmp sle i32 %61, 0
  br i1 %62, label %63, label %64

63:                                               ; preds = %58
  store i32 0, ptr %3, align 4
  store i32 1, ptr %12, align 4
  br label %113

64:                                               ; preds = %58
  %65 = load i32, ptr %11, align 4, !tbaa !25
  %66 = sext i32 %65 to i64
  %67 = load ptr, ptr %7, align 8, !tbaa !17
  %68 = getelementptr inbounds nuw %struct.rand_drbg_hash_st, ptr %67, i32 0, i32 2
  store i64 %66, ptr %68, align 8, !tbaa !46
  %69 = load ptr, ptr %7, align 8, !tbaa !17
  %70 = getelementptr inbounds nuw %struct.rand_drbg_hash_st, ptr %69, i32 0, i32 2
  %71 = load i64, ptr %70, align 8, !tbaa !46
  %72 = lshr i64 %71, 3
  %73 = mul i64 64, %72
  %74 = trunc i64 %73 to i32
  %75 = load ptr, ptr %6, align 8, !tbaa !9
  %76 = getelementptr inbounds nuw %struct.prov_drbg_st, ptr %75, i32 0, i32 16
  store i32 %74, ptr %76, align 8, !tbaa !52
  %77 = load ptr, ptr %6, align 8, !tbaa !9
  %78 = getelementptr inbounds nuw %struct.prov_drbg_st, ptr %77, i32 0, i32 16
  %79 = load i32, ptr %78, align 8, !tbaa !52
  %80 = icmp ugt i32 %79, 256
  br i1 %80, label %81, label %84

81:                                               ; preds = %64
  %82 = load ptr, ptr %6, align 8, !tbaa !9
  %83 = getelementptr inbounds nuw %struct.prov_drbg_st, ptr %82, i32 0, i32 16
  store i32 256, ptr %83, align 8, !tbaa !52
  br label %84

84:                                               ; preds = %81, %64
  %85 = load ptr, ptr %7, align 8, !tbaa !17
  %86 = getelementptr inbounds nuw %struct.rand_drbg_hash_st, ptr %85, i32 0, i32 2
  %87 = load i64, ptr %86, align 8, !tbaa !46
  %88 = icmp ugt i64 %87, 32
  br i1 %88, label %89, label %92

89:                                               ; preds = %84
  %90 = load ptr, ptr %6, align 8, !tbaa !9
  %91 = getelementptr inbounds nuw %struct.prov_drbg_st, ptr %90, i32 0, i32 31
  store i64 111, ptr %91, align 8, !tbaa !38
  br label %95

92:                                               ; preds = %84
  %93 = load ptr, ptr %6, align 8, !tbaa !9
  %94 = getelementptr inbounds nuw %struct.prov_drbg_st, ptr %93, i32 0, i32 31
  store i64 55, ptr %94, align 8, !tbaa !38
  br label %95

95:                                               ; preds = %92, %89
  %96 = load ptr, ptr %6, align 8, !tbaa !9
  %97 = getelementptr inbounds nuw %struct.prov_drbg_st, ptr %96, i32 0, i32 16
  %98 = load i32, ptr %97, align 8, !tbaa !52
  %99 = udiv i32 %98, 8
  %100 = zext i32 %99 to i64
  %101 = load ptr, ptr %6, align 8, !tbaa !9
  %102 = getelementptr inbounds nuw %struct.prov_drbg_st, ptr %101, i32 0, i32 18
  store i64 %100, ptr %102, align 8, !tbaa !53
  %103 = load ptr, ptr %6, align 8, !tbaa !9
  %104 = getelementptr inbounds nuw %struct.prov_drbg_st, ptr %103, i32 0, i32 18
  %105 = load i64, ptr %104, align 8, !tbaa !53
  %106 = udiv i64 %105, 2
  %107 = load ptr, ptr %6, align 8, !tbaa !9
  %108 = getelementptr inbounds nuw %struct.prov_drbg_st, ptr %107, i32 0, i32 20
  store i64 %106, ptr %108, align 8, !tbaa !54
  br label %109

109:                                              ; preds = %95, %45
  %110 = load ptr, ptr %6, align 8, !tbaa !9
  %111 = load ptr, ptr %5, align 8, !tbaa !29
  %112 = call i32 @ossl_drbg_set_ctx_params(ptr noundef %110, ptr noundef %111)
  store i32 %112, ptr %3, align 4
  store i32 1, ptr %12, align 4
  br label %113

113:                                              ; preds = %109, %63, %57, %34
  call void @llvm.lifetime.end.p0(i64 4, ptr %11) #4
  call void @llvm.lifetime.end.p0(i64 8, ptr %10) #4
  call void @llvm.lifetime.end.p0(i64 8, ptr %9) #4
  call void @llvm.lifetime.end.p0(i64 8, ptr %8) #4
  call void @llvm.lifetime.end.p0(i64 8, ptr %7) #4
  call void @llvm.lifetime.end.p0(i64 8, ptr %6) #4
  %114 = load i32, ptr %3, align 4
  ret i32 %114
}