; Function Attrs: nounwind uwtable
define internal fastcc i32 @drbg_hash_set_ctx_params_locked(ptr noundef %0, ptr noundef %1) unnamed_addr #0 {
  %3 = getelementptr inbounds nuw i8, ptr %0, i64 240
  %4 = load ptr, ptr %3, align 8, !tbaa !3
  %5 = getelementptr inbounds nuw i8, ptr %0, i64 8
  %6 = load ptr, ptr %5, align 8, !tbaa !35
  %7 = tail call ptr @ossl_prov_ctx_get0_libctx(ptr noundef %6) #6
  %8 = tail call i32 @ERR_set_mark() #6
  %9 = tail call ptr @OSSL_PARAM_locate_const(ptr noundef %1, ptr noundef nonnull @.str.1) #6
  %10 = icmp eq ptr %9, null
  br i1 %10, label %drbg_fetch_digest_from_prov.exit.thread, label %11

11:                                               ; preds = %2
  %12 = getelementptr inbounds nuw i8, ptr %9, i64 8
  %13 = load i32, ptr %12, align 8, !tbaa !36
  %.not.i = icmp eq i32 %13, 4
  br i1 %.not.i, label %14, label %drbg_fetch_digest_from_prov.exit.thread

14:                                               ; preds = %11
  %15 = getelementptr inbounds nuw i8, ptr %9, i64 16
  %16 = load ptr, ptr %15, align 8, !tbaa !39
  %17 = tail call ptr @ossl_provider_find(ptr noundef %7, ptr noundef %16, i32 noundef 1) #6
  %18 = icmp eq ptr %17, null
  br i1 %18, label %drbg_fetch_digest_from_prov.exit.thread, label %19

19:                                               ; preds = %14
  %20 = tail call ptr @OSSL_PARAM_locate_const(ptr noundef %1, ptr noundef nonnull @.str.2) #6
  %21 = icmp eq ptr %20, null
  br i1 %21, label %32, label %22

22:                                               ; preds = %19
  %23 = getelementptr inbounds nuw i8, ptr %20, i64 8
  %24 = load i32, ptr %23, align 8, !tbaa !36
  %.not22.i = icmp eq i32 %24, 4
  br i1 %.not22.i, label %25, label %drbg_fetch_digest_from_prov.exit.thread44

25:                                               ; preds = %22
  %26 = getelementptr inbounds nuw i8, ptr %20, i64 16
  %27 = load ptr, ptr %26, align 8, !tbaa !39
  %28 = tail call ptr @evp_digest_fetch_from_prov(ptr noundef nonnull %17, ptr noundef %27, ptr noundef null) #6
  %.not23.i = icmp eq ptr %28, null
  br i1 %.not23.i, label %drbg_fetch_digest_from_prov.exit.thread44, label %29

29:                                               ; preds = %25
  tail call void @EVP_MD_free(ptr noundef null) #6
  br label %32

drbg_fetch_digest_from_prov.exit.thread44:        ; preds = %22, %25
  tail call void @ossl_provider_free(ptr noundef nonnull %17) #6
  br label %drbg_fetch_digest_from_prov.exit.thread

drbg_fetch_digest_from_prov.exit.thread:          ; preds = %14, %11, %2, %drbg_fetch_digest_from_prov.exit.thread44
  %30 = tail call i32 @ERR_pop_to_mark() #6
  %31 = tail call i32 @ossl_prov_digest_load_from_params(ptr noundef %4, ptr noundef %1, ptr noundef %7) #6
  %.not34 = icmp eq i32 %31, 0
  br i1 %.not34, label %57, label %35

32:                                               ; preds = %29, %19
  %.039 = phi ptr [ null, %19 ], [ %28, %29 ]
  tail call void @ossl_provider_free(ptr noundef nonnull %17) #6
  %33 = tail call i32 @ERR_clear_last_mark() #6
  %.not35 = icmp eq ptr %.039, null
  br i1 %.not35, label %35, label %34

34:                                               ; preds = %32
  tail call void @ossl_prov_digest_set_md(ptr noundef %4, ptr noundef nonnull %.039) #6
  br label %35

35:                                               ; preds = %32, %34, %drbg_fetch_digest_from_prov.exit.thread
  %36 = tail call ptr @ossl_prov_digest_md(ptr noundef %4) #6
  %.not36 = icmp eq ptr %36, null
  br i1 %.not36, label %55, label %37

37:                                               ; preds = %35
  %38 = tail call i32 @ossl_drbg_verify_digest(ptr noundef nonnull %0, ptr noundef %7, ptr noundef nonnull %36) #6
  %.not37 = icmp eq i32 %38, 0
  br i1 %.not37, label %57, label %39

39:                                               ; preds = %37
  %40 = tail call i32 @EVP_MD_get_size(ptr noundef nonnull %36) #6
  %41 = icmp slt i32 %40, 1
  br i1 %41, label %57, label %42

42:                                               ; preds = %39
  %43 = zext nneg i32 %40 to i64
  %44 = getelementptr inbounds nuw i8, ptr %4, i64 32
  store i64 %43, ptr %44, align 8, !tbaa !32
  %45 = shl i32 %40, 3
  %46 = and i32 %45, -64
  %47 = getelementptr inbounds nuw i8, ptr %0, i64 120
  %spec.select = tail call i32 @llvm.umin.i32(i32 %46, i32 256)
  store i32 %spec.select, ptr %47, align 8, !tbaa !40
  %48 = icmp samesign ugt i32 %40, 32
  %spec.select48 = select i1 %48, i64 111, i64 55
  %49 = getelementptr inbounds nuw i8, ptr %0, i64 224
  store i64 %spec.select48, ptr %49, align 8, !tbaa !25
  %50 = lshr exact i32 %spec.select, 3
  %51 = zext nneg i32 %50 to i64
  %52 = getelementptr inbounds nuw i8, ptr %0, i64 136
  store i64 %51, ptr %52, align 8, !tbaa !41
  %53 = lshr exact i64 %51, 1
  %54 = getelementptr inbounds nuw i8, ptr %0, i64 152
  store i64 %53, ptr %54, align 8, !tbaa !42
  br label %55

55:                                               ; preds = %42, %35
  %56 = tail call i32 @ossl_drbg_set_ctx_params(ptr noundef nonnull %0, ptr noundef %1) #6
  br label %57

57:                                               ; preds = %39, %37, %drbg_fetch_digest_from_prov.exit.thread, %55
  %.0 = phi i32 [ %56, %55 ], [ 0, %drbg_fetch_digest_from_prov.exit.thread ], [ 0, %37 ], [ 0, %39 ]
  ret i32 %.0
}